target datalayout = "e-m:e-p270:32:32-p271:32:32-p272:64:64-i64:64-i128:128-f80:128-n8:16:32:64-S128"
target triple = "x86_64-pc-linux-gnu"

%struct.opj_codec_private = type { %union.anon, ptr, %struct.opj_event_mgr, i32, ptr, ptr, ptr, ptr }
%union.anon = type { %struct.opj_decompression }
%struct.opj_decompression = type { ptr, ptr, ptr, ptr, ptr, ptr, ptr, ptr, ptr, ptr, ptr, ptr }
%struct.opj_event_mgr = type { ptr, ptr, ptr, ptr, ptr, ptr }

; Function Attrs: nounwind uwtable
define hidden ptr @opj_create_decompress(i32 noundef %0) #0 {
  %2 = alloca ptr, align 8
  %3 = alloca i32, align 4
  %4 = alloca ptr, align 8
  %5 = alloca i32, align 4
  store i32 %0, ptr %3, align 4, !tbaa !20
  call void @llvm.lifetime.start.p0(i64 8, ptr %4) #5
  store ptr null, ptr %4, align 8, !tbaa !9
  %6 = call ptr @opj_calloc(i64 noundef 1, i64 noundef 192)
  store ptr %6, ptr %4, align 8, !tbaa !9
  %7 = load ptr, ptr %4, align 8, !tbaa !9
  %8 = icmp ne ptr %7, null
  br i1 %8, label %10, label %9

9:                                                ; preds = %1
  store ptr null, ptr %2, align 8
  store i32 1, ptr %5, align 4
  br label %131

10:                                               ; preds = %1
  %11 = load ptr, ptr %4, align 8, !tbaa !9
  %12 = getelementptr inbounds nuw %struct.opj_codec_private, ptr %11, i32 0, i32 3
  store i32 1, ptr %12, align 8, !tbaa !21
  %13 = load i32, ptr %3, align 4, !tbaa !20
  switch i32 %13, label %125 [
    i32 0, label %14
    i32 2, label %69
    i32 -1, label %124
    i32 1, label %124
  ]

14:                                               ; preds = %10
  %15 = load ptr, ptr %4, align 8, !tbaa !9
  %16 = getelementptr inbounds nuw %struct.opj_codec_private, ptr %15, i32 0, i32 4
  store ptr @j2k_dump, ptr %16, align 8, !tbaa !22
  %17 = load ptr, ptr %4, align 8, !tbaa !9
  %18 = getelementptr inbounds nuw %struct.opj_codec_private, ptr %17, i32 0, i32 5
  store ptr @j2k_get_cstr_info, ptr %18, align 8, !tbaa !23
  %19 = load ptr, ptr %4, align 8, !tbaa !9
  %20 = getelementptr inbounds nuw %struct.opj_codec_private, ptr %19, i32 0, i32 6
  store ptr @j2k_get_cstr_index, ptr %20, align 8, !tbaa !24
  %21 = load ptr, ptr %4, align 8, !tbaa !9
  %22 = getelementptr inbounds nuw %struct.opj_codec_private, ptr %21, i32 0, i32 0
  %23 = getelementptr inbounds nuw %struct.opj_decompression, ptr %22, i32 0, i32 1
  store ptr @opj_j2k_decode, ptr %23, align 8, !tbaa !25
  %24 = load ptr, ptr %4, align 8, !tbaa !9
  %25 = getelementptr inbounds nuw %struct.opj_codec_private, ptr %24, i32 0, i32 0
  %26 = getelementptr inbounds nuw %struct.opj_decompression, ptr %25, i32 0, i32 4
  store ptr @opj_j2k_end_decompress, ptr %26, align 8, !tbaa !25
  %27 = load ptr, ptr %4, align 8, !tbaa !9
  %28 = getelementptr inbounds nuw %struct.opj_codec_private, ptr %27, i32 0, i32 0
  %29 = getelementptr inbounds nuw %struct.opj_decompression, ptr %28, i32 0, i32 0
  store ptr @opj_j2k_read_header, ptr %29, align 8, !tbaa !25
  %30 = load ptr, ptr %4, align 8, !tbaa !9
  %31 = getelementptr inbounds nuw %struct.opj_codec_private, ptr %30, i32 0, i32 0
  %32 = getelementptr inbounds nuw %struct.opj_decompression, ptr %31, i32 0, i32 5
  store ptr @opj_j2k_destroy, ptr %32, align 8, !tbaa !25
  %33 = load ptr, ptr %4, align 8, !tbaa !9
  %34 = getelementptr inbounds nuw %struct.opj_codec_private, ptr %33, i32 0, i32 0
  %35 = getelementptr inbounds nuw %struct.opj_decompression, ptr %34, i32 0, i32 6
  store ptr @opj_j2k_setup_decoder, ptr %35, align 8, !tbaa !25
  %36 = load ptr, ptr %4, align 8, !tbaa !9
  %37 = getelementptr inbounds nuw %struct.opj_codec_private, ptr %36, i32 0, i32 0
  %38 = getelementptr inbounds nuw %struct.opj_decompression, ptr %37, i32 0, i32 7
  store ptr @opj_j2k_decoder_set_strict_mode, ptr %38, align 8, !tbaa !25
  %39 = load ptr, ptr %4, align 8, !tbaa !9
  %40 = getelementptr inbounds nuw %struct.opj_codec_private, ptr %39, i32 0, i32 0
  %41 = getelementptr inbounds nuw %struct.opj_decompression, ptr %40, i32 0, i32 2
  store ptr @opj_j2k_read_tile_header, ptr %41, align 8, !tbaa !25
  %42 = load ptr, ptr %4, align 8, !tbaa !9
  %43 = getelementptr inbounds nuw %struct.opj_codec_private, ptr %42, i32 0, i32 0
  %44 = getelementptr inbounds nuw %struct.opj_decompression, ptr %43, i32 0, i32 3
  store ptr @opj_j2k_decode_tile, ptr %44, align 8, !tbaa !25
  %45 = load ptr, ptr %4, align 8, !tbaa !9
  %46 = getelementptr inbounds nuw %struct.opj_codec_private, ptr %45, i32 0, i32 0
  %47 = getelementptr inbounds nuw %struct.opj_decompression, ptr %46, i32 0, i32 8
  store ptr @opj_j2k_set_decode_area, ptr %47, align 8, !tbaa !25
  %48 = load ptr, ptr %4, align 8, !tbaa !9
  %49 = getelementptr inbounds nuw %struct.opj_codec_private, ptr %48, i32 0, i32 0
  %50 = getelementptr inbounds nuw %struct.opj_decompression, ptr %49, i32 0, i32 9
  store ptr @opj_j2k_get_tile, ptr %50, align 8, !tbaa !25
  %51 = load ptr, ptr %4, align 8, !tbaa !9
  %52 = getelementptr inbounds nuw %struct.opj_codec_private, ptr %51, i32 0, i32 0
  %53 = getelementptr inbounds nuw %struct.opj_decompression, ptr %52, i32 0, i32 10
  store ptr @opj_j2k_set_decoded_resolution_factor, ptr %53, align 8, !tbaa !25
  %54 = load ptr, ptr %4, align 8, !tbaa !9
  %55 = getelementptr inbounds nuw %struct.opj_codec_private, ptr %54, i32 0, i32 0
  %56 = getelementptr inbounds nuw %struct.opj_decompression, ptr %55, i32 0, i32 11
  store ptr @opj_j2k_set_decoded_components, ptr %56, align 8, !tbaa !25
  %57 = load ptr, ptr %4, align 8, !tbaa !9
  %58 = getelementptr inbounds nuw %struct.opj_codec_private, ptr %57, i32 0, i32 7
  store ptr @opj_j2k_set_threads, ptr %58, align 8, !tbaa !26
  %59 = call ptr @opj_j2k_create_decompress()
  %60 = load ptr, ptr %4, align 8, !tbaa !9
  %61 = getelementptr inbounds nuw %struct.opj_codec_private, ptr %60, i32 0, i32 1
  store ptr %59, ptr %61, align 8, !tbaa !27
  %62 = load ptr, ptr %4, align 8, !tbaa !9
  %63 = getelementptr inbounds nuw %struct.opj_codec_private, ptr %62, i32 0, i32 1
  %64 = load ptr, ptr %63, align 8, !tbaa !27
  %65 = icmp ne ptr %64, null
  br i1 %65, label %68, label %66

66:                                               ; preds = %14
  %67 = load ptr, ptr %4, align 8, !tbaa !9
  call void @opj_free(ptr noundef %67)
  store ptr null, ptr %2, align 8
  store i32 1, ptr %5, align 4
  br label %131

68:                                               ; preds = %14
  br label %127

69:                                               ; preds = %10
  %70 = load ptr, ptr %4, align 8, !tbaa !9
  %71 = getelementptr inbounds nuw %struct.opj_codec_private, ptr %70, i32 0, i32 4
  store ptr @jp2_dump, ptr %71, align 8, !tbaa !22
  %72 = load ptr, ptr %4, align 8, !tbaa !9
  %73 = getelementptr inbounds nuw %struct.opj_codec_private, ptr %72, i32 0, i32 5
  store ptr @jp2_get_cstr_info, ptr %73, align 8, !tbaa !23
  %74 = load ptr, ptr %4, align 8, !tbaa !9
  %75 = getelementptr inbounds nuw %struct.opj_codec_private, ptr %74, i32 0, i32 6
  store ptr @jp2_get_cstr_index, ptr %75, align 8, !tbaa !24
  %76 = load ptr, ptr %4, align 8, !tbaa !9
  %77 = getelementptr inbounds nuw %struct.opj_codec_private, ptr %76, i32 0, i32 0
  %78 = getelementptr inbounds nuw %struct.opj_decompression, ptr %77, i32 0, i32 1
  store ptr @opj_jp2_decode, ptr %78, align 8, !tbaa !25
  %79 = load ptr, ptr %4, align 8, !tbaa !9
  %80 = getelementptr inbounds nuw %struct.opj_codec_private, ptr %79, i32 0, i32 0
  %81 = getelementptr inbounds nuw %struct.opj_decompression, ptr %80, i32 0, i32 4
  store ptr @opj_jp2_end_decompress, ptr %81, align 8, !tbaa !25
  %82 = load ptr, ptr %4, align 8, !tbaa !9
  %83 = getelementptr inbounds nuw %struct.opj_codec_private, ptr %82, i32 0, i32 0
  %84 = getelementptr inbounds nuw %struct.opj_decompression, ptr %83, i32 0, i32 0
  store ptr @opj_jp2_read_header, ptr %84, align 8, !tbaa !25
  %85 = load ptr, ptr %4, align 8, !tbaa !9
  %86 = getelementptr inbounds nuw %struct.opj_codec_private, ptr %85, i32 0, i32 0
  %87 = getelementptr inbounds nuw %struct.opj_decompression, ptr %86, i32 0, i32 2
  store ptr @opj_jp2_read_tile_header, ptr %87, align 8, !tbaa !25
  %88 = load ptr, ptr %4, align 8, !tbaa !9
  %89 = getelementptr inbounds nuw %struct.opj_codec_private, ptr %88, i32 0, i32 0
  %90 = getelementptr inbounds nuw %struct.opj_decompression, ptr %89, i32 0, i32 3
  store ptr @opj_jp2_decode_tile, ptr %90, align 8, !tbaa !25
  %91 = load ptr, ptr %4, align 8, !tbaa !9
  %92 = getelementptr inbounds nuw %struct.opj_codec_private, ptr %91, i32 0, i32 0
  %93 = getelementptr inbounds nuw %struct.opj_decompression, ptr %92, i32 0, i32 5
  store ptr @opj_jp2_destroy, ptr %93, align 8, !tbaa !25
  %94 = load ptr, ptr %4, align 8, !tbaa !9
  %95 = getelementptr inbounds nuw %struct.opj_codec_private, ptr %94, i32 0, i32 0
  %96 = getelementptr inbounds nuw %struct.opj_decompression, ptr %95, i32 0, i32 6
  store ptr @opj_jp2_setup_decoder, ptr %96, align 8, !tbaa !25
  %97 = load ptr, ptr %4, align 8, !tbaa !9
  %98 = getelementptr inbounds nuw %struct.opj_codec_private, ptr %97, i32 0, i32 0
  %99 = getelementptr inbounds nuw %struct.opj_decompression, ptr %98, i32 0, i32 7
  store ptr @opj_jp2_decoder_set_strict_mode, ptr %99, align 8, !tbaa !25
  %100 = load ptr, ptr %4, align 8, !tbaa !9
  %101 = getelementptr inbounds nuw %struct.opj_codec_private, ptr %100, i32 0, i32 0
  %102 = getelementptr inbounds nuw %struct.opj_decompression, ptr %101, i32 0, i32 8
  store ptr @opj_jp2_set_decode_area, ptr %102, align 8, !tbaa !25
  %103 = load ptr, ptr %4, align 8, !tbaa !9
  %104 = getelementptr inbounds nuw %struct.opj_codec_private, ptr %103, i32 0, i32 0
  %105 = getelementptr inbounds nuw %struct.opj_decompression, ptr %104, i32 0, i32 9
  store ptr @opj_jp2_get_tile, ptr %105, align 8, !tbaa !25
  %106 = load ptr, ptr %4, align 8, !tbaa !9
  %107 = getelementptr inbounds nuw %struct.opj_codec_private, ptr %106, i32 0, i32 0
  %108 = getelementptr inbounds nuw %struct.opj_decompression, ptr %107, i32 0, i32 10
  store ptr @opj_jp2_set_decoded_resolution_factor, ptr %108, align 8, !tbaa !25
  %109 = load ptr, ptr %4, align 8, !tbaa !9
  %110 = getelementptr inbounds nuw %struct.opj_codec_private, ptr %109, i32 0, i32 0
  %111 = getelementptr inbounds nuw %struct.opj_decompression, ptr %110, i32 0, i32 11
  store ptr @opj_jp2_set_decoded_components, ptr %111, align 8, !tbaa !25
  %112 = load ptr, ptr %4, align 8, !tbaa !9
  %113 = getelementptr inbounds nuw %struct.opj_codec_private, ptr %112, i32 0, i32 7
  store ptr @opj_jp2_set_threads, ptr %113, align 8, !tbaa !26
  %114 = call ptr @opj_jp2_create(i32 noundef 1)
  %115 = load ptr, ptr %4, align 8, !tbaa !9
  %116 = getelementptr inbounds nuw %struct.opj_codec_private, ptr %115, i32 0, i32 1
  store ptr %114, ptr %116, align 8, !tbaa !27
  %117 = load ptr, ptr %4, align 8, !tbaa !9
  %118 = getelementptr inbounds nuw %struct.opj_codec_private, ptr %117, i32 0, i32 1
  %119 = load ptr, ptr %118, align 8, !tbaa !27
  %120 = icmp ne ptr %119, null
  br i1 %120, label %123, label %121

121:                                              ; preds = %69
  %122 = load ptr, ptr %4, align 8, !tbaa !9
  call void @opj_free(ptr noundef %122)
  store ptr null, ptr %2, align 8
  store i32 1, ptr %5, align 4
  br label %131

123:                                              ; preds = %69
  br label %127

124:                                              ; preds = %10, %10
  br label %125

125:                                              ; preds = %10, %124
  %126 = load ptr, ptr %4, align 8, !tbaa !9
  call void @opj_free(ptr noundef %126)
  store ptr null, ptr %2, align 8
  store i32 1, ptr %5, align 4
  br label %131

127:                                              ; preds = %123, %68
  %128 = load ptr, ptr %4, align 8, !tbaa !9
  %129 = getelementptr inbounds nuw %struct.opj_codec_private, ptr %128, i32 0, i32 2
  call void @opj_set_default_event_handler(ptr noundef %129)
  %130 = load ptr, ptr %4, align 8, !tbaa !9
  store ptr %130, ptr %2, align 8
  store i32 1, ptr %5, align 4
  br label %131

131:                                              ; preds = %127, %125, %121, %66, %9
  call void @llvm.lifetime.end.p0(i64 8, ptr %4) #5
  %132 = load ptr, ptr %2, align 8
  ret ptr %132
}