; Function Attrs: nounwind uwtable
define hidden ptr @opj_create_decompress(i32 noundef %0) local_unnamed_addr #2 {
  %2 = tail call ptr @opj_calloc(i64 noundef 1, i64 noundef 192) #8
  %.not = icmp eq ptr %2, null
  br i1 %.not, label %46, label %3

3:                                                ; preds = %1
  %4 = getelementptr inbounds nuw i8, ptr %2, i64 152
  store i32 1, ptr %4, align 8, !tbaa !15
  switch i32 %0, label %43 [
    i32 0, label %5
    i32 2, label %24
  ]

5:                                                ; preds = %3
  %6 = getelementptr inbounds nuw i8, ptr %2, i64 160
  store ptr @j2k_dump, ptr %6, align 8, !tbaa !16
  %7 = getelementptr inbounds nuw i8, ptr %2, i64 168
  store ptr @j2k_get_cstr_info, ptr %7, align 8, !tbaa !17
  %8 = getelementptr inbounds nuw i8, ptr %2, i64 176
  store ptr @j2k_get_cstr_index, ptr %8, align 8, !tbaa !18
  %9 = getelementptr inbounds nuw i8, ptr %2, i64 8
  store ptr @opj_j2k_decode, ptr %9, align 8, !tbaa !19
  %10 = getelementptr inbounds nuw i8, ptr %2, i64 32
  store ptr @opj_j2k_end_decompress, ptr %10, align 8, !tbaa !19
  store ptr @opj_j2k_read_header, ptr %2, align 8, !tbaa !19
  %11 = getelementptr inbounds nuw i8, ptr %2, i64 40
  store ptr @opj_j2k_destroy, ptr %11, align 8, !tbaa !19
  %12 = getelementptr inbounds nuw i8, ptr %2, i64 48
  store ptr @opj_j2k_setup_decoder, ptr %12, align 8, !tbaa !19
  %13 = getelementptr inbounds nuw i8, ptr %2, i64 56
  store ptr @opj_j2k_decoder_set_strict_mode, ptr %13, align 8, !tbaa !19
  %14 = getelementptr inbounds nuw i8, ptr %2, i64 16
  store ptr @opj_j2k_read_tile_header, ptr %14, align 8, !tbaa !19
  %15 = getelementptr inbounds nuw i8, ptr %2, i64 24
  store ptr @opj_j2k_decode_tile, ptr %15, align 8, !tbaa !19
  %16 = getelementptr inbounds nuw i8, ptr %2, i64 64
  store ptr @opj_j2k_set_decode_area, ptr %16, align 8, !tbaa !19
  %17 = getelementptr inbounds nuw i8, ptr %2, i64 72
  store ptr @opj_j2k_get_tile, ptr %17, align 8, !tbaa !19
  %18 = getelementptr inbounds nuw i8, ptr %2, i64 80
  store ptr @opj_j2k_set_decoded_resolution_factor, ptr %18, align 8, !tbaa !19
  %19 = getelementptr inbounds nuw i8, ptr %2, i64 88
  store ptr @opj_j2k_set_decoded_components, ptr %19, align 8, !tbaa !19
  %20 = getelementptr inbounds nuw i8, ptr %2, i64 184
  store ptr @opj_j2k_set_threads, ptr %20, align 8, !tbaa !20
  %21 = tail call ptr @opj_j2k_create_decompress() #8
  %22 = getelementptr inbounds nuw i8, ptr %2, i64 96
  store ptr %21, ptr %22, align 8, !tbaa !21
  %.not46 = icmp eq ptr %21, null
  br i1 %.not46, label %23, label %44

23:                                               ; preds = %5
  tail call void @opj_free(ptr noundef nonnull %2) #8
  br label %46

24:                                               ; preds = %3
  %25 = getelementptr inbounds nuw i8, ptr %2, i64 160
  store ptr @jp2_dump, ptr %25, align 8, !tbaa !16
  %26 = getelementptr inbounds nuw i8, ptr %2, i64 168
  store ptr @jp2_get_cstr_info, ptr %26, align 8, !tbaa !17
  %27 = getelementptr inbounds nuw i8, ptr %2, i64 176
  store ptr @jp2_get_cstr_index, ptr %27, align 8, !tbaa !18
  %28 = getelementptr inbounds nuw i8, ptr %2, i64 8
  store ptr @opj_jp2_decode, ptr %28, align 8, !tbaa !19
  %29 = getelementptr inbounds nuw i8, ptr %2, i64 32
  store ptr @opj_jp2_end_decompress, ptr %29, align 8, !tbaa !19
  store ptr @opj_jp2_read_header, ptr %2, align 8, !tbaa !19
  %30 = getelementptr inbounds nuw i8, ptr %2, i64 16
  store ptr @opj_jp2_read_tile_header, ptr %30, align 8, !tbaa !19
  %31 = getelementptr inbounds nuw i8, ptr %2, i64 24
  store ptr @opj_jp2_decode_tile, ptr %31, align 8, !tbaa !19
  %32 = getelementptr inbounds nuw i8, ptr %2, i64 40
  store ptr @opj_jp2_destroy, ptr %32, align 8, !tbaa !19
  %33 = getelementptr inbounds nuw i8, ptr %2, i64 48
  store ptr @opj_jp2_setup_decoder, ptr %33, align 8, !tbaa !19
  %34 = getelementptr inbounds nuw i8, ptr %2, i64 56
  store ptr @opj_jp2_decoder_set_strict_mode, ptr %34, align 8, !tbaa !19
  %35 = getelementptr inbounds nuw i8, ptr %2, i64 64
  store ptr @opj_jp2_set_decode_area, ptr %35, align 8, !tbaa !19
  %36 = getelementptr inbounds nuw i8, ptr %2, i64 72
  store ptr @opj_jp2_get_tile, ptr %36, align 8, !tbaa !19
  %37 = getelementptr inbounds nuw i8, ptr %2, i64 80
  store ptr @opj_jp2_set_decoded_resolution_factor, ptr %37, align 8, !tbaa !19
  %38 = getelementptr inbounds nuw i8, ptr %2, i64 88
  store ptr @opj_jp2_set_decoded_components, ptr %38, align 8, !tbaa !19
  %39 = getelementptr inbounds nuw i8, ptr %2, i64 184
  store ptr @opj_jp2_set_threads, ptr %39, align 8, !tbaa !20
  %40 = tail call ptr @opj_jp2_create(i32 noundef 1) #8
  %41 = getelementptr inbounds nuw i8, ptr %2, i64 96
  store ptr %40, ptr %41, align 8, !tbaa !21
  %.not45 = icmp eq ptr %40, null
  br i1 %.not45, label %42, label %44

42:                                               ; preds = %24
  tail call void @opj_free(ptr noundef nonnull %2) #8
  br label %46

43:                                               ; preds = %3
  tail call void @opj_free(ptr noundef nonnull %2) #8
  br label %46

44:                                               ; preds = %24, %5
  %45 = getelementptr inbounds nuw i8, ptr %2, i64 104
  tail call void @opj_set_default_event_handler(ptr noundef nonnull %45) #8
  br label %46

46:                                               ; preds = %1, %44, %43, %42, %23
  %.0 = phi ptr [ null, %43 ], [ %2, %44 ], [ null, %42 ], [ null, %23 ], [ null, %1 ]
  ret ptr %.0
}